target datalayout = "e-m:e-p270:32:32-p271:32:32-p272:64:64-i64:64-i128:128-f80:128-n8:16:32:64-S128"
target triple = "x86_64-pc-linux-gnu"

%struct.DdManager = type { %struct.DdNode, ptr, ptr, ptr, ptr, ptr, ptr, ptr, i32, i32, double, double, double, i32, i32, i32, i32, i32, i32, ptr, ptr, %struct.DdSubtable, i32, i32, i32, i32, i32, i32, i32, double, i32, i32, i32, ptr, i64, double, i32, ptr, ptr, ptr, ptr, ptr, ptr, ptr, i32, ptr, ptr, ptr, ptr, ptr, ptr, i32, i32, i32, double, i32, i32, i32, i32, double, double, i32, i32, i32, i32, i32, i32, i32, i32, i32, ptr, ptr, i32, i32, i32, i32, i32, i32, ptr, ptr, ptr, ptr, ptr, ptr, ptr, ptr, i32, i64, i64, i64, i32, i64, i64, double, double, double, double, double, double, i32, ptr, ptr, i64 }
%struct.DdNode = type { i32, i32, ptr, %union.anon, i64 }
%union.anon = type { %struct.DdChildren }
%struct.DdChildren = type { ptr, ptr }
%struct.DdSubtable = type { ptr, i32, i32, i32, i32, i32, i32, i32, i32, i32, i32, i32 }

; Function Attrs: nounwind uwtable
define ptr @cuddZddChangeAux(ptr noundef %0, ptr noundef %1, ptr noundef %2) #0 {
  %4 = alloca ptr, align 8
  %5 = alloca ptr, align 8
  %6 = alloca ptr, align 8
  %7 = alloca ptr, align 8
  %8 = alloca i32, align 4
  %9 = alloca i32, align 4
  %10 = alloca ptr, align 8
  %11 = alloca ptr, align 8
  %12 = alloca ptr, align 8
  %13 = alloca ptr, align 8
  %14 = alloca ptr, align 8
  %15 = alloca i32, align 4
  store ptr %0, ptr %5, align 8, !tbaa !3
  store ptr %1, ptr %6, align 8, !tbaa !8
  store ptr %2, ptr %7, align 8, !tbaa !8
  call void @llvm.lifetime.start.p0(i64 4, ptr %8) #3
  call void @llvm.lifetime.start.p0(i64 4, ptr %9) #3
  call void @llvm.lifetime.start.p0(i64 8, ptr %10) #3
  call void @llvm.lifetime.start.p0(i64 8, ptr %11) #3
  call void @llvm.lifetime.start.p0(i64 8, ptr %12) #3
  call void @llvm.lifetime.start.p0(i64 8, ptr %13) #3
  %16 = load ptr, ptr %5, align 8, !tbaa !3
  %17 = getelementptr inbounds nuw %struct.DdManager, ptr %16, i32 0, i32 1
  %18 = load ptr, ptr %17, align 8, !tbaa !33
  store ptr %18, ptr %13, align 8, !tbaa !8
  call void @llvm.lifetime.start.p0(i64 8, ptr %14) #3
  %19 = load ptr, ptr %5, align 8, !tbaa !3
  %20 = getelementptr inbounds nuw %struct.DdManager, ptr %19, i32 0, i32 2
  %21 = load ptr, ptr %20, align 8, !tbaa !29
  store ptr %21, ptr %14, align 8, !tbaa !8
  %22 = load ptr, ptr %6, align 8, !tbaa !8
  %23 = load ptr, ptr %14, align 8, !tbaa !8
  %24 = icmp eq ptr %22, %23
  br i1 %24, label %25, label %27

25:                                               ; preds = %3
  %26 = load ptr, ptr %14, align 8, !tbaa !8
  store ptr %26, ptr %4, align 8
  store i32 1, ptr %15, align 4
  br label %175

27:                                               ; preds = %3
  %28 = load ptr, ptr %6, align 8, !tbaa !8
  %29 = load ptr, ptr %13, align 8, !tbaa !8
  %30 = icmp eq ptr %28, %29
  br i1 %30, label %31, label %33

31:                                               ; preds = %27
  %32 = load ptr, ptr %7, align 8, !tbaa !8
  store ptr %32, ptr %4, align 8
  store i32 1, ptr %15, align 4
  br label %175

33:                                               ; preds = %27
  %34 = load ptr, ptr %5, align 8, !tbaa !3
  %35 = load ptr, ptr %6, align 8, !tbaa !8
  %36 = load ptr, ptr %7, align 8, !tbaa !8
  %37 = call ptr @cuddCacheLookup2Zdd(ptr noundef %34, ptr noundef @cuddZddChangeAux, ptr noundef %35, ptr noundef %36)
  store ptr %37, ptr %10, align 8, !tbaa !8
  %38 = load ptr, ptr %10, align 8, !tbaa !8
  %39 = icmp ne ptr %38, null
  br i1 %39, label %40, label %42

40:                                               ; preds = %33
  %41 = load ptr, ptr %10, align 8, !tbaa !8
  store ptr %41, ptr %4, align 8
  store i32 1, ptr %15, align 4
  br label %175

42:                                               ; preds = %33
  %43 = load ptr, ptr %5, align 8, !tbaa !3
  %44 = getelementptr inbounds nuw %struct.DdManager, ptr %43, i32 0, i32 38
  %45 = load ptr, ptr %44, align 8, !tbaa !31
  %46 = load ptr, ptr %6, align 8, !tbaa !8
  %47 = getelementptr inbounds nuw %struct.DdNode, ptr %46, i32 0, i32 0
  %48 = load i32, ptr %47, align 8, !tbaa !30
  %49 = zext i32 %48 to i64
  %50 = getelementptr inbounds nuw i32, ptr %45, i64 %49
  %51 = load i32, ptr %50, align 4, !tbaa !32
  store i32 %51, ptr %8, align 4, !tbaa !32
  %52 = load ptr, ptr %5, align 8, !tbaa !3
  %53 = getelementptr inbounds nuw %struct.DdManager, ptr %52, i32 0, i32 38
  %54 = load ptr, ptr %53, align 8, !tbaa !31
  %55 = load ptr, ptr %7, align 8, !tbaa !8
  %56 = getelementptr inbounds nuw %struct.DdNode, ptr %55, i32 0, i32 0
  %57 = load i32, ptr %56, align 8, !tbaa !30
  %58 = zext i32 %57 to i64
  %59 = getelementptr inbounds nuw i32, ptr %54, i64 %58
  %60 = load i32, ptr %59, align 4, !tbaa !32
  store i32 %60, ptr %9, align 4, !tbaa !32
  %61 = load i32, ptr %8, align 4, !tbaa !32
  %62 = load i32, ptr %9, align 4, !tbaa !32
  %63 = icmp sgt i32 %61, %62
  br i1 %63, label %64, label %78

64:                                               ; preds = %42
  %65 = load ptr, ptr %5, align 8, !tbaa !3
  %66 = load ptr, ptr %7, align 8, !tbaa !8
  %67 = getelementptr inbounds nuw %struct.DdNode, ptr %66, i32 0, i32 0
  %68 = load i32, ptr %67, align 8, !tbaa !30
  %69 = load ptr, ptr %6, align 8, !tbaa !8
  %70 = load ptr, ptr %5, align 8, !tbaa !3
  %71 = getelementptr inbounds nuw %struct.DdManager, ptr %70, i32 0, i32 2
  %72 = load ptr, ptr %71, align 8, !tbaa !29
  %73 = call ptr @cuddZddGetNode(ptr noundef %65, i32 noundef %68, ptr noundef %69, ptr noundef %72)
  store ptr %73, ptr %10, align 8, !tbaa !8
  %74 = load ptr, ptr %10, align 8, !tbaa !8
  %75 = icmp eq ptr %74, null
  br i1 %75, label %76, label %77

76:                                               ; preds = %64
  store ptr null, ptr %4, align 8
  store i32 1, ptr %15, align 4
  br label %175

77:                                               ; preds = %64
  br label %169

78:                                               ; preds = %42
  %79 = load i32, ptr %8, align 4, !tbaa !32
  %80 = load i32, ptr %9, align 4, !tbaa !32
  %81 = icmp eq i32 %79, %80
  br i1 %81, label %82, label %100

82:                                               ; preds = %78
  %83 = load ptr, ptr %5, align 8, !tbaa !3
  %84 = load ptr, ptr %7, align 8, !tbaa !8
  %85 = getelementptr inbounds nuw %struct.DdNode, ptr %84, i32 0, i32 0
  %86 = load i32, ptr %85, align 8, !tbaa !30
  %87 = load ptr, ptr %6, align 8, !tbaa !8
  %88 = getelementptr inbounds nuw %struct.DdNode, ptr %87, i32 0, i32 3
  %89 = getelementptr inbounds nuw %struct.DdChildren, ptr %88, i32 0, i32 1
  %90 = load ptr, ptr %89, align 8, !tbaa !35
  %91 = load ptr, ptr %6, align 8, !tbaa !8
  %92 = getelementptr inbounds nuw %struct.DdNode, ptr %91, i32 0, i32 3
  %93 = getelementptr inbounds nuw %struct.DdChildren, ptr %92, i32 0, i32 0
  %94 = load ptr, ptr %93, align 8, !tbaa !35
  %95 = call ptr @cuddZddGetNode(ptr noundef %83, i32 noundef %86, ptr noundef %90, ptr noundef %94)
  store ptr %95, ptr %10, align 8, !tbaa !8
  %96 = load ptr, ptr %10, align 8, !tbaa !8
  %97 = icmp eq ptr %96, null
  br i1 %97, label %98, label %99

98:                                               ; preds = %82
  store ptr null, ptr %4, align 8
  store i32 1, ptr %15, align 4
  br label %175

99:                                               ; preds = %82
  br label %168

100:                                              ; preds = %78
  %101 = load ptr, ptr %5, align 8, !tbaa !3
  %102 = load ptr, ptr %6, align 8, !tbaa !8
  %103 = getelementptr inbounds nuw %struct.DdNode, ptr %102, i32 0, i32 3
  %104 = getelementptr inbounds nuw %struct.DdChildren, ptr %103, i32 0, i32 0
  %105 = load ptr, ptr %104, align 8, !tbaa !35
  %106 = load ptr, ptr %7, align 8, !tbaa !8
  %107 = call ptr @cuddZddChangeAux(ptr noundef %101, ptr noundef %105, ptr noundef %106)
  store ptr %107, ptr %11, align 8, !tbaa !8
  %108 = load ptr, ptr %11, align 8, !tbaa !8
  %109 = icmp eq ptr %108, null
  br i1 %109, label %110, label %111

110:                                              ; preds = %100
  store ptr null, ptr %4, align 8
  store i32 1, ptr %15, align 4
  br label %175

111:                                              ; preds = %100
  %112 = load ptr, ptr %11, align 8, !tbaa !8
  %113 = ptrtoint ptr %112 to i64
  %114 = and i64 %113, -2
  %115 = inttoptr i64 %114 to ptr
  %116 = getelementptr inbounds nuw %struct.DdNode, ptr %115, i32 0, i32 1
  %117 = load i32, ptr %116, align 4, !tbaa !36
  %118 = add i32 %117, 1
  store i32 %118, ptr %116, align 4, !tbaa !36
  %119 = load ptr, ptr %5, align 8, !tbaa !3
  %120 = load ptr, ptr %6, align 8, !tbaa !8
  %121 = getelementptr inbounds nuw %struct.DdNode, ptr %120, i32 0, i32 3
  %122 = getelementptr inbounds nuw %struct.DdChildren, ptr %121, i32 0, i32 1
  %123 = load ptr, ptr %122, align 8, !tbaa !35
  %124 = load ptr, ptr %7, align 8, !tbaa !8
  %125 = call ptr @cuddZddChangeAux(ptr noundef %119, ptr noundef %123, ptr noundef %124)
  store ptr %125, ptr %12, align 8, !tbaa !8
  %126 = load ptr, ptr %12, align 8, !tbaa !8
  %127 = icmp eq ptr %126, null
  br i1 %127, label %128, label %131

128:                                              ; preds = %111
  %129 = load ptr, ptr %5, align 8, !tbaa !3
  %130 = load ptr, ptr %11, align 8, !tbaa !8
  call void @Cudd_RecursiveDerefZdd(ptr noundef %129, ptr noundef %130)
  store ptr null, ptr %4, align 8
  store i32 1, ptr %15, align 4
  br label %175

131:                                              ; preds = %111
  %132 = load ptr, ptr %12, align 8, !tbaa !8
  %133 = ptrtoint ptr %132 to i64
  %134 = and i64 %133, -2
  %135 = inttoptr i64 %134 to ptr
  %136 = getelementptr inbounds nuw %struct.DdNode, ptr %135, i32 0, i32 1
  %137 = load i32, ptr %136, align 4, !tbaa !36
  %138 = add i32 %137, 1
  store i32 %138, ptr %136, align 4, !tbaa !36
  %139 = load ptr, ptr %5, align 8, !tbaa !3
  %140 = load ptr, ptr %6, align 8, !tbaa !8
  %141 = getelementptr inbounds nuw %struct.DdNode, ptr %140, i32 0, i32 0
  %142 = load i32, ptr %141, align 8, !tbaa !30
  %143 = load ptr, ptr %11, align 8, !tbaa !8
  %144 = load ptr, ptr %12, align 8, !tbaa !8
  %145 = call ptr @cuddZddGetNode(ptr noundef %139, i32 noundef %142, ptr noundef %143, ptr noundef %144)
  store ptr %145, ptr %10, align 8, !tbaa !8
  %146 = load ptr, ptr %10, align 8, !tbaa !8
  %147 = icmp eq ptr %146, null
  br i1 %147, label %148, label %153

148:                                              ; preds = %131
  %149 = load ptr, ptr %5, align 8, !tbaa !3
  %150 = load ptr, ptr %11, align 8, !tbaa !8
  call void @Cudd_RecursiveDerefZdd(ptr noundef %149, ptr noundef %150)
  %151 = load ptr, ptr %5, align 8, !tbaa !3
  %152 = load ptr, ptr %12, align 8, !tbaa !8
  call void @Cudd_RecursiveDerefZdd(ptr noundef %151, ptr noundef %152)
  store ptr null, ptr %4, align 8
  store i32 1, ptr %15, align 4
  br label %175

153:                                              ; preds = %131
  %154 = load ptr, ptr %11, align 8, !tbaa !8
  %155 = ptrtoint ptr %154 to i64
  %156 = and i64 %155, -2
  %157 = inttoptr i64 %156 to ptr
  %158 = getelementptr inbounds nuw %struct.DdNode, ptr %157, i32 0, i32 1
  %159 = load i32, ptr %158, align 4, !tbaa !36
  %160 = add i32 %159, -1
  store i32 %160, ptr %158, align 4, !tbaa !36
  %161 = load ptr, ptr %12, align 8, !tbaa !8
  %162 = ptrtoint ptr %161 to i64
  %163 = and i64 %162, -2
  %164 = inttoptr i64 %163 to ptr
  %165 = getelementptr inbounds nuw %struct.DdNode, ptr %164, i32 0, i32 1
  %166 = load i32, ptr %165, align 4, !tbaa !36
  %167 = add i32 %166, -1
  store i32 %167, ptr %165, align 4, !tbaa !36
  br label %168

168:                                              ; preds = %153, %99
  br label %169

169:                                              ; preds = %168, %77
  %170 = load ptr, ptr %5, align 8, !tbaa !3
  %171 = load ptr, ptr %6, align 8, !tbaa !8
  %172 = load ptr, ptr %7, align 8, !tbaa !8
  %173 = load ptr, ptr %10, align 8, !tbaa !8
  call void @cuddCacheInsert2(ptr noundef %170, ptr noundef @cuddZddChangeAux, ptr noundef %171, ptr noundef %172, ptr noundef %173)
  %174 = load ptr, ptr %10, align 8, !tbaa !8
  store ptr %174, ptr %4, align 8
  store i32 1, ptr %15, align 4
  br label %175

175:                                              ; preds = %169, %148, %128, %110, %98, %76, %40, %31, %25
  call void @llvm.lifetime.end.p0(i64 8, ptr %14) #3
  call void @llvm.lifetime.end.p0(i64 8, ptr %13) #3
  call void @llvm.lifetime.end.p0(i64 8, ptr %12) #3
  call void @llvm.lifetime.end.p0(i64 8, ptr %11) #3
  call void @llvm.lifetime.end.p0(i64 8, ptr %10) #3
  call void @llvm.lifetime.end.p0(i64 4, ptr %9) #3
  call void @llvm.lifetime.end.p0(i64 4, ptr %8) #3
  %176 = load ptr, ptr %4, align 8
  ret ptr %176
}