; Function Attrs: nounwind uwtable
define ptr @cuddZddChangeAux(ptr noundef %0, ptr noundef %1, ptr noundef %2) #0 {
  %4 = getelementptr inbounds nuw i8, ptr %0, i64 48
  %5 = load ptr, ptr %4, align 8, !tbaa !26
  %6 = icmp eq ptr %1, %5
  br i1 %6, label %71, label %7

7:                                                ; preds = %3
  %8 = getelementptr inbounds nuw i8, ptr %0, i64 40
  %9 = load ptr, ptr %8, align 8, !tbaa !37
  %10 = icmp eq ptr %1, %9
  br i1 %10, label %71, label %11

11:                                               ; preds = %7
  %12 = tail call ptr @cuddCacheLookup2Zdd(ptr noundef nonnull %0, ptr noundef nonnull @cuddZddChangeAux, ptr noundef %1, ptr noundef %2) #3
  %.not = icmp eq ptr %12, null
  br i1 %.not, label %13, label %71

13:                                               ; preds = %11
  %14 = getelementptr inbounds nuw i8, ptr %0, i64 320
  %15 = load ptr, ptr %14, align 8, !tbaa !28
  %16 = load i32, ptr %1, align 8, !tbaa !27
  %17 = zext i32 %16 to i64
  %18 = getelementptr inbounds nuw i32, ptr %15, i64 %17
  %19 = load i32, ptr %18, align 4, !tbaa !29
  %20 = load i32, ptr %2, align 8, !tbaa !27
  %21 = zext i32 %20 to i64
  %22 = getelementptr inbounds nuw i32, ptr %15, i64 %21
  %23 = load i32, ptr %22, align 4, !tbaa !29
  %24 = icmp sgt i32 %19, %23
  br i1 %24, label %25, label %29

25:                                               ; preds = %13
  %26 = load ptr, ptr %4, align 8, !tbaa !26
  %27 = tail call ptr @cuddZddGetNode(ptr noundef nonnull %0, i32 noundef %20, ptr noundef nonnull %1, ptr noundef %26) #3
  %28 = icmp eq ptr %27, null
  br i1 %28, label %71, label %70

29:                                               ; preds = %13
  %30 = icmp eq i32 %19, %23
  %31 = getelementptr inbounds nuw i8, ptr %1, i64 16
  br i1 %30, label %32, label %38

32:                                               ; preds = %29
  %33 = getelementptr inbounds nuw i8, ptr %1, i64 24
  %34 = load ptr, ptr %33, align 8, !tbaa !32
  %35 = load ptr, ptr %31, align 8, !tbaa !32
  %36 = tail call ptr @cuddZddGetNode(ptr noundef nonnull %0, i32 noundef %20, ptr noundef %34, ptr noundef %35) #3
  %37 = icmp eq ptr %36, null
  br i1 %37, label %71, label %70

38:                                               ; preds = %29
  %39 = load ptr, ptr %31, align 8, !tbaa !32
  %40 = tail call ptr @cuddZddChangeAux(ptr noundef nonnull %0, ptr noundef %39, ptr noundef nonnull %2)
  %41 = icmp eq ptr %40, null
  br i1 %41, label %71, label %42

42:                                               ; preds = %38
  %43 = ptrtoint ptr %40 to i64
  %44 = and i64 %43, -2
  %45 = inttoptr i64 %44 to ptr
  %46 = getelementptr inbounds nuw i8, ptr %45, i64 4
  %47 = load i32, ptr %46, align 4, !tbaa !33
  %48 = add i32 %47, 1
  store i32 %48, ptr %46, align 4, !tbaa !33
  %49 = getelementptr inbounds nuw i8, ptr %1, i64 24
  %50 = load ptr, ptr %49, align 8, !tbaa !32
  %51 = tail call ptr @cuddZddChangeAux(ptr noundef nonnull %0, ptr noundef %50, ptr noundef nonnull %2)
  %52 = icmp eq ptr %51, null
  br i1 %52, label %53, label %54

53:                                               ; preds = %42
  tail call void @Cudd_RecursiveDerefZdd(ptr noundef nonnull %0, ptr noundef nonnull %40) #3
  br label %71

54:                                               ; preds = %42
  %55 = ptrtoint ptr %51 to i64
  %56 = and i64 %55, -2
  %57 = inttoptr i64 %56 to ptr
  %58 = getelementptr inbounds nuw i8, ptr %57, i64 4
  %59 = load i32, ptr %58, align 4, !tbaa !33
  %60 = add i32 %59, 1
  store i32 %60, ptr %58, align 4, !tbaa !33
  %61 = load i32, ptr %1, align 8, !tbaa !27
  %62 = tail call ptr @cuddZddGetNode(ptr noundef nonnull %0, i32 noundef %61, ptr noundef nonnull %40, ptr noundef nonnull %51) #3
  %63 = icmp eq ptr %62, null
  br i1 %63, label %64, label %65

64:                                               ; preds = %54
  tail call void @Cudd_RecursiveDerefZdd(ptr noundef nonnull %0, ptr noundef nonnull %40) #3
  tail call void @Cudd_RecursiveDerefZdd(ptr noundef nonnull %0, ptr noundef nonnull %51) #3
  br label %71

65:                                               ; preds = %54
  %66 = load i32, ptr %46, align 4, !tbaa !33
  %67 = add i32 %66, -1
  store i32 %67, ptr %46, align 4, !tbaa !33
  %68 = load i32, ptr %58, align 4, !tbaa !33
  %69 = add i32 %68, -1
  store i32 %69, ptr %58, align 4, !tbaa !33
  br label %70

70:                                               ; preds = %65, %32, %25
  %.059 = phi ptr [ %27, %25 ], [ %36, %32 ], [ %62, %65 ]
  tail call void @cuddCacheInsert2(ptr noundef nonnull %0, ptr noundef nonnull @cuddZddChangeAux, ptr noundef nonnull %1, ptr noundef nonnull %2, ptr noundef nonnull %.059) #3
  br label %71

71:                                               ; preds = %38, %32, %25, %11, %7, %3, %70, %64, %53
  %.0 = phi ptr [ %.059, %70 ], [ null, %53 ], [ null, %64 ], [ %5, %3 ], [ %2, %7 ], [ %12, %11 ], [ null, %25 ], [ null, %32 ], [ null, %38 ]
  ret ptr %.0
}